; Function Attrs: mustprogress uwtable
define dso_local void @_ZN4Luau12formatAppendERNSt7__cxx1112basic_stringIcSt11char_traitsIcESaIcEEEPKcz(ptr noundef nonnull align 8 dereferenceable(32) %0, ptr nocapture noundef readonly %1, ...) local_unnamed_addr #0 {
  %3 = alloca [1 x %struct.__va_list_tag], align 16
  %4 = alloca [1 x %struct.__va_list_tag], align 16
  call void @llvm.va_start.p0(ptr nonnull %4)
  call void @llvm.lifetime.start.p0(i64 24, ptr nonnull %3)
  call void @llvm.va_copy.p0(ptr nonnull %3, ptr nonnull %4)
  %5 = call i32 @vsnprintf(ptr noundef null, i64 noundef 0, ptr noundef readonly %1, ptr noundef nonnull %3) #20
  call void @llvm.va_end.p0(ptr nonnull %3)
  %6 = icmp slt i32 %5, 1
  br i1 %6, label %_ZN4Luau13vformatAppendERNSt7__cxx1112basic_stringIcSt11char_traitsIcESaIcEEEPKcP13__va_list_tag.exit, label %7

7:                                                ; preds = %2
  %8 = call noundef i64 @_ZNKSt7__cxx1112basic_stringIcSt11char_traitsIcESaIcEE4sizeEv(ptr noundef nonnull align 8 dereferenceable(32) %0) #20
  %9 = zext nneg i32 %5 to i64
  %10 = add i64 %8, %9
  call void @_ZNSt7__cxx1112basic_stringIcSt11char_traitsIcESaIcEE6resizeEm(ptr noundef nonnull align 8 dereferenceable(32) %0, i64 noundef %10)
  %11 = call noundef nonnull align 1 dereferenceable(1) ptr @_ZNSt7__cxx1112basic_stringIcSt11char_traitsIcESaIcEEixEm(ptr noundef nonnull align 8 dereferenceable(32) %0, i64 noundef 0)
  %12 = getelementptr inbounds i8, ptr %11, i64 %8
  %13 = add nuw nsw i32 %5, 1
  %14 = zext nneg i32 %13 to i64
  %15 = call i32 @vsnprintf(ptr noundef nonnull %12, i64 noundef %14, ptr noundef readonly %1, ptr noundef nonnull %4) #20
  br label %_ZN4Luau13vformatAppendERNSt7__cxx1112basic_stringIcSt11char_traitsIcESaIcEEEPKcP13__va_list_tag.exit

_ZN4Luau13vformatAppendERNSt7__cxx1112basic_stringIcSt11char_traitsIcESaIcEEEPKcP13__va_list_tag.exit: ; preds = %2, %7
  call void @llvm.lifetime.end.p0(i64 24, ptr nonnull %3)
  call void @llvm.va_end.p0(ptr nonnull %4)
  ret void
}